target datalayout = "e-m:e-p270:32:32-p271:32:32-p272:64:64-i64:64-i128:128-f80:128-n8:16:32:64-S128"
target triple = "x86_64-pc-linux-gnu"

%struct.lua_State = type { ptr, i8, i8, i8, i8, i16, %union.StkIdRel, ptr, ptr, %union.StkIdRel, %union.StkIdRel, ptr, %union.StkIdRel, ptr, ptr, ptr, %struct.CallInfo, ptr, i64, i32, i32, i32, i32, i32, %struct.anon.3 }
%union.StkIdRel = type { ptr }
%struct.CallInfo = type { %union.StkIdRel, %union.StkIdRel, ptr, ptr, %union.anon, %union.anon.2, i32 }
%union.anon = type { %struct.anon.1 }
%struct.anon.1 = type { ptr, i64, i64 }
%union.anon.2 = type { i32 }
%struct.anon.3 = type { i32, i32 }
%struct.UpVal = type { ptr, i8, i8, %union.anon.5, %union.anon.6 }
%union.anon.5 = type { ptr }
%union.anon.6 = type { %struct.anon.7 }
%struct.anon.7 = type { ptr, ptr }
%struct.anon.0 = type { ptr, i32, i32 }

; Function Attrs: nounwind uwtable
define internal void @correctstack(ptr noundef %0, ptr noundef %1) #0 {
  %3 = alloca ptr, align 8
  %4 = alloca ptr, align 8
  %5 = alloca ptr, align 8
  %6 = alloca ptr, align 8
  store ptr %0, ptr %3, align 8, !tbaa !4
  store ptr %1, ptr %4, align 8, !tbaa !11
  call void @llvm.lifetime.start.p0(i64 8, ptr %5) #11
  call void @llvm.lifetime.start.p0(i64 8, ptr %6) #11
  %7 = load ptr, ptr %3, align 8, !tbaa !4
  %8 = getelementptr inbounds nuw %struct.lua_State, ptr %7, i32 0, i32 10
  %9 = load ptr, ptr %8, align 8, !tbaa !34
  %10 = load ptr, ptr %3, align 8, !tbaa !4
  %11 = getelementptr inbounds nuw %struct.lua_State, ptr %10, i32 0, i32 6
  %12 = load i64, ptr %11, align 8, !tbaa !34
  %13 = getelementptr inbounds i8, ptr %9, i64 %12
  %14 = load ptr, ptr %3, align 8, !tbaa !4
  %15 = getelementptr inbounds nuw %struct.lua_State, ptr %14, i32 0, i32 6
  store ptr %13, ptr %15, align 8, !tbaa !34
  %16 = load ptr, ptr %3, align 8, !tbaa !4
  %17 = getelementptr inbounds nuw %struct.lua_State, ptr %16, i32 0, i32 10
  %18 = load ptr, ptr %17, align 8, !tbaa !34
  %19 = load ptr, ptr %3, align 8, !tbaa !4
  %20 = getelementptr inbounds nuw %struct.lua_State, ptr %19, i32 0, i32 12
  %21 = load i64, ptr %20, align 8, !tbaa !34
  %22 = getelementptr inbounds i8, ptr %18, i64 %21
  %23 = load ptr, ptr %3, align 8, !tbaa !4
  %24 = getelementptr inbounds nuw %struct.lua_State, ptr %23, i32 0, i32 12
  store ptr %22, ptr %24, align 8, !tbaa !34
  %25 = load ptr, ptr %3, align 8, !tbaa !4
  %26 = getelementptr inbounds nuw %struct.lua_State, ptr %25, i32 0, i32 11
  %27 = load ptr, ptr %26, align 8, !tbaa !51
  store ptr %27, ptr %6, align 8, !tbaa !52
  br label %28

28:                                               ; preds = %41, %2
  %29 = load ptr, ptr %6, align 8, !tbaa !52
  %30 = icmp ne ptr %29, null
  br i1 %30, label %31, label %46

31:                                               ; preds = %28
  %32 = load ptr, ptr %3, align 8, !tbaa !4
  %33 = getelementptr inbounds nuw %struct.lua_State, ptr %32, i32 0, i32 10
  %34 = load ptr, ptr %33, align 8, !tbaa !34
  %35 = load ptr, ptr %6, align 8, !tbaa !52
  %36 = getelementptr inbounds nuw %struct.UpVal, ptr %35, i32 0, i32 3
  %37 = load i64, ptr %36, align 8, !tbaa !34
  %38 = getelementptr inbounds i8, ptr %34, i64 %37
  %39 = load ptr, ptr %6, align 8, !tbaa !52
  %40 = getelementptr inbounds nuw %struct.UpVal, ptr %39, i32 0, i32 3
  store ptr %38, ptr %40, align 8, !tbaa !34
  br label %41

41:                                               ; preds = %31
  %42 = load ptr, ptr %6, align 8, !tbaa !52
  %43 = getelementptr inbounds nuw %struct.UpVal, ptr %42, i32 0, i32 4
  %44 = getelementptr inbounds nuw %struct.anon.7, ptr %43, i32 0, i32 0
  %45 = load ptr, ptr %44, align 8, !tbaa !34
  store ptr %45, ptr %6, align 8, !tbaa !52
  br label %28

46:                                               ; preds = %28
  %47 = load ptr, ptr %3, align 8, !tbaa !4
  %48 = getelementptr inbounds nuw %struct.lua_State, ptr %47, i32 0, i32 8
  %49 = load ptr, ptr %48, align 8, !tbaa !53
  store ptr %49, ptr %5, align 8, !tbaa !54
  br label %50

50:                                               ; preds = %82, %46
  %51 = load ptr, ptr %5, align 8, !tbaa !54
  %52 = icmp ne ptr %51, null
  br i1 %52, label %53, label %86

53:                                               ; preds = %50
  %54 = load ptr, ptr %3, align 8, !tbaa !4
  %55 = getelementptr inbounds nuw %struct.lua_State, ptr %54, i32 0, i32 10
  %56 = load ptr, ptr %55, align 8, !tbaa !34
  %57 = load ptr, ptr %5, align 8, !tbaa !54
  %58 = getelementptr inbounds nuw %struct.CallInfo, ptr %57, i32 0, i32 1
  %59 = load i64, ptr %58, align 8, !tbaa !34
  %60 = getelementptr inbounds i8, ptr %56, i64 %59
  %61 = load ptr, ptr %5, align 8, !tbaa !54
  %62 = getelementptr inbounds nuw %struct.CallInfo, ptr %61, i32 0, i32 1
  store ptr %60, ptr %62, align 8, !tbaa !34
  %63 = load ptr, ptr %3, align 8, !tbaa !4
  %64 = getelementptr inbounds nuw %struct.lua_State, ptr %63, i32 0, i32 10
  %65 = load ptr, ptr %64, align 8, !tbaa !34
  %66 = load ptr, ptr %5, align 8, !tbaa !54
  %67 = getelementptr inbounds nuw %struct.CallInfo, ptr %66, i32 0, i32 0
  %68 = load i64, ptr %67, align 8, !tbaa !34
  %69 = getelementptr inbounds i8, ptr %65, i64 %68
  %70 = load ptr, ptr %5, align 8, !tbaa !54
  %71 = getelementptr inbounds nuw %struct.CallInfo, ptr %70, i32 0, i32 0
  store ptr %69, ptr %71, align 8, !tbaa !34
  %72 = load ptr, ptr %5, align 8, !tbaa !54
  %73 = getelementptr inbounds nuw %struct.CallInfo, ptr %72, i32 0, i32 6
  %74 = load i32, ptr %73, align 4, !tbaa !56
  %75 = and i32 %74, 32768
  %76 = icmp ne i32 %75, 0
  br i1 %76, label %81, label %77

77:                                               ; preds = %53
  %78 = load ptr, ptr %5, align 8, !tbaa !54
  %79 = getelementptr inbounds nuw %struct.CallInfo, ptr %78, i32 0, i32 4
  %80 = getelementptr inbounds nuw %struct.anon.0, ptr %79, i32 0, i32 1
  store volatile i32 1, ptr %80, align 8, !tbaa !34
  br label %81

81:                                               ; preds = %77, %53
  br label %82

82:                                               ; preds = %81
  %83 = load ptr, ptr %5, align 8, !tbaa !54
  %84 = getelementptr inbounds nuw %struct.CallInfo, ptr %83, i32 0, i32 2
  %85 = load ptr, ptr %84, align 8, !tbaa !55
  store ptr %85, ptr %5, align 8, !tbaa !54
  br label %50

86:                                               ; preds = %50
  call void @llvm.lifetime.end.p0(i64 8, ptr %6) #11
  call void @llvm.lifetime.end.p0(i64 8, ptr %5) #11
  ret void
}