; Function Attrs: nofree norecurse nounwind uwtable
define internal fastcc void @correctstack(ptr noundef captures(none) %0) unnamed_addr #7 {
  %2 = getelementptr inbounds nuw i8, ptr %0, i64 48
  %3 = load ptr, ptr %2, align 8, !tbaa !27
  %4 = getelementptr inbounds nuw i8, ptr %0, i64 16
  %5 = load i64, ptr %4, align 8, !tbaa !27
  %6 = getelementptr inbounds i8, ptr %3, i64 %5
  store ptr %6, ptr %4, align 8, !tbaa !27
  %7 = getelementptr inbounds nuw i8, ptr %0, i64 64
  %8 = load i64, ptr %7, align 8, !tbaa !27
  %9 = getelementptr inbounds i8, ptr %3, i64 %8
  store ptr %9, ptr %7, align 8, !tbaa !27
  %10 = getelementptr inbounds nuw i8, ptr %0, i64 56
  %.01 = load ptr, ptr %10, align 8, !tbaa !27
  %.not2 = icmp eq ptr %.01, null
  br i1 %.not2, label %._crit_edge, label %.lr.ph

.lr.ph:                                           ; preds = %1, %.lr.ph
  %.03 = phi ptr [ %.0, %.lr.ph ], [ %.01, %1 ]
  %11 = load ptr, ptr %2, align 8, !tbaa !27
  %12 = getelementptr inbounds nuw i8, ptr %.03, i64 16
  %13 = load i64, ptr %12, align 8, !tbaa !27
  %14 = getelementptr inbounds i8, ptr %11, i64 %13
  store ptr %14, ptr %12, align 8, !tbaa !27
  %15 = getelementptr inbounds nuw i8, ptr %.03, i64 24
  %.0 = load ptr, ptr %15, align 8, !tbaa !27
  %.not = icmp eq ptr %.0, null
  br i1 %.not, label %._crit_edge, label %.lr.ph

._crit_edge:                                      ; preds = %.lr.ph, %1
  %16 = getelementptr inbounds nuw i8, ptr %0, i64 32
  %.0234 = load ptr, ptr %16, align 8, !tbaa !41
  %.not245 = icmp eq ptr %.0234, null
  br i1 %.not245, label %._crit_edge9, label %.lr.ph8

.lr.ph8:                                          ; preds = %._crit_edge, %29
  %.0236 = phi ptr [ %.023, %29 ], [ %.0234, %._crit_edge ]
  %17 = load ptr, ptr %2, align 8, !tbaa !27
  %18 = getelementptr inbounds nuw i8, ptr %.0236, i64 8
  %19 = load i64, ptr %18, align 8, !tbaa !27
  %20 = getelementptr inbounds i8, ptr %17, i64 %19
  store ptr %20, ptr %18, align 8, !tbaa !27
  %21 = load ptr, ptr %2, align 8, !tbaa !27
  %22 = load i64, ptr %.0236, align 8, !tbaa !27
  %23 = getelementptr inbounds i8, ptr %21, i64 %22
  store ptr %23, ptr %.0236, align 8, !tbaa !27
  %24 = getelementptr inbounds nuw i8, ptr %.0236, i64 60
  %25 = load i32, ptr %24, align 4, !tbaa !43
  %26 = and i32 %25, 32768
  %.not25 = icmp eq i32 %26, 0
  br i1 %.not25, label %27, label %29

27:                                               ; preds = %.lr.ph8
  %28 = getelementptr inbounds nuw i8, ptr %.0236, i64 40
  store volatile i32 1, ptr %28, align 8, !tbaa !27
  br label %29

29:                                               ; preds = %.lr.ph8, %27
  %30 = getelementptr inbounds nuw i8, ptr %.0236, i64 16
  %.023 = load ptr, ptr %30, align 8, !tbaa !41
  %.not24 = icmp eq ptr %.023, null
  br i1 %.not24, label %._crit_edge9, label %.lr.ph8

._crit_edge9:                                     ; preds = %29, %._crit_edge
  ret void
}